target datalayout = "e-m:e-p270:32:32-p271:32:32-p272:64:64-i64:64-i128:128-f80:128-n8:16:32:64-S128"
target triple = "x86_64-pc-linux-gnu"

%struct.TCGOp = type { i32, i32, %union.anon, [2 x i32], [0 x i64] }
%union.anon = type { %struct.QTailQLink }
%struct.QTailQLink = type { ptr, ptr }

; Function Attrs: noinline nounwind sspstrong uwtable
define dso_local ptr @tcg_gen_op1(i32 noundef %0, i32 noundef %1, i64 noundef %2) #0 {
  %4 = alloca i32, align 4
  %5 = alloca i32, align 4
  %6 = alloca i64, align 8
  %7 = alloca ptr, align 8
  store i32 %0, ptr %4, align 4
  store i32 %1, ptr %5, align 4
  store i64 %2, ptr %6, align 8
  call void @llvm.lifetime.start.p0(i64 8, ptr %7) #7
  %8 = load i32, ptr %4, align 4
  %9 = call ptr @tcg_emit_op(i32 noundef %8, i32 noundef 1)
  store ptr %9, ptr %7, align 8
  %10 = load i32, ptr %5, align 4
  %11 = load ptr, ptr %7, align 8
  %12 = load i32, ptr %11, align 8
  %13 = and i32 %10, 255
  %14 = shl i32 %13, 16
  %15 = and i32 %12, -16711681
  %16 = or i32 %15, %14
  store i32 %16, ptr %11, align 8
  %17 = load i64, ptr %6, align 8
  %18 = load ptr, ptr %7, align 8
  %19 = getelementptr inbounds nuw %struct.TCGOp, ptr %18, i32 0, i32 4
  %20 = getelementptr inbounds [0 x i64], ptr %19, i64 0, i64 0
  store i64 %17, ptr %20, align 8
  %21 = load ptr, ptr %7, align 8
  call void @llvm.lifetime.end.p0(i64 8, ptr %7) #7
  ret ptr %21
}