; Function Attrs: noinline nounwind sspstrong uwtable
define dso_local noundef ptr @tcg_gen_op1(i32 noundef %0, i32 noundef %1, i64 noundef %2) local_unnamed_addr #0 {
  %4 = tail call ptr @tcg_emit_op(i32 noundef %0, i32 noundef 1) #6
  %5 = load i32, ptr %4, align 8
  %6 = shl i32 %1, 16
  %7 = and i32 %6, 16711680
  %8 = and i32 %5, -16711681
  %9 = or disjoint i32 %8, %7
  store i32 %9, ptr %4, align 8
  %10 = getelementptr inbounds nuw i8, ptr %4, i64 32
  store i64 %2, ptr %10, align 8
  ret ptr %4
}